target datalayout = "e-m:e-p270:32:32-p271:32:32-p272:64:64-i64:64-i128:128-f80:128-n8:16:32:64-S128"
target triple = "x86_64-pc-linux-gnu"

%struct.QArrayData = type { %"class.QtPrivate::RefCount", i32, i32, i64 }
%"class.QtPrivate::RefCount" = type { %class.QBasicAtomicInteger }
%class.QBasicAtomicInteger = type { %"struct.std::atomic" }
%"struct.std::atomic" = type { %"struct.std::__atomic_base" }
%"struct.std::__atomic_base" = type { i32 }
%"class.vcg::tri::io::BreHeader" = type { ptr, %class.QByteArray }
%class.QByteArray = type { ptr }

; Function Attrs: mustprogress nounwind uwtable
define linkonce_odr noundef ptr @_ZN10QArrayData4dataEv(ptr noundef nonnull align 8 dereferenceable(24) %0) #0 comdat align 2 {
  %2 = alloca ptr, align 8
  store ptr %0, ptr %2, align 8
  %3 = load ptr, ptr %2, align 8
  %4 = getelementptr inbounds %struct.QArrayData, ptr %3, i32 0, i32 3
  %5 = load i64, ptr %4, align 8
  %6 = getelementptr inbounds i8, ptr %3, i64 %5
  ret ptr %6
}

; Function Attrs: mustprogress nounwind uwtable
define linkonce_odr noundef ptr @_ZN15QTypedArrayDataIcE4dataEv(ptr noundef nonnull align 8 dereferenceable(24) %0) #0 comdat align 2 {
  %2 = alloca ptr, align 8
  store ptr %0, ptr %2, align 8
  %3 = load ptr, ptr %2, align 8
  %4 = call noundef ptr @_ZN10QArrayData4dataEv(ptr noundef nonnull align 8 dereferenceable(24) %3)
  ret ptr %4
}

; Function Attrs: mustprogress nounwind uwtable
define linkonce_odr noundef ptr @_ZNK10QByteArray4dataEv(ptr noundef nonnull align 8 dereferenceable(8) %0) #0 comdat align 2 {
  %2 = alloca ptr, align 8
  store ptr %0, ptr %2, align 8
  %3 = load ptr, ptr %2, align 8
  %4 = getelementptr inbounds %class.QByteArray, ptr %3, i32 0, i32 0
  %5 = load ptr, ptr %4, align 8
  %6 = call noundef ptr @_ZN15QTypedArrayDataIcE4dataEv(ptr noundef nonnull align 8 dereferenceable(24) %5)
  ret ptr %6
}

; Function Attrs: mustprogress nounwind uwtable
define noundef i32 @_ZNK3vcg3tri2io9BreHeader7ExtentYEv(ptr noundef nonnull align 8 dereferenceable(16) %0) #0 align 2 {
  %2 = alloca ptr, align 8
  store ptr %0, ptr %2, align 8
  %3 = load ptr, ptr %2, align 8
  %4 = getelementptr inbounds %"class.vcg::tri::io::BreHeader", ptr %3, i32 0, i32 1
  %5 = call noundef ptr @_ZNK10QByteArray4dataEv(ptr noundef nonnull align 8 dereferenceable(8) %4)
  %6 = getelementptr inbounds i8, ptr %5, i64 16
  %7 = load i16, ptr %6, align 2
  %8 = zext i16 %7 to i32
  ret i32 %8
}